; Function Attrs: mustprogress nofree norecurse nosync nounwind willreturn memory(read, argmem: readwrite, inaccessiblemem: none) uwtable
define hidden void @_ZN6Assimp11AMFImporter21ParseHelper_Node_ExitEv(ptr noundef nonnull align 8 captures(none) dereferenceable(224) %0) local_unnamed_addr #12 align 2 {
  %2 = getelementptr inbounds nuw i8, ptr %0, i64 72
  %3 = load ptr, ptr %2, align 8
  %.not = icmp eq ptr %3, null
  br i1 %.not, label %7, label %4

4:                                                ; preds = %1
  %5 = getelementptr inbounds nuw i8, ptr %3, i64 48
  %6 = load ptr, ptr %5, align 8
  store ptr %6, ptr %2, align 8
  br label %7

7:                                                ; preds = %4, %1
  ret void
}